; Function Attrs: mustprogress uwtable
define void @_ZN6duckdb18StringColumnReader12VerifyStringEPKcj(ptr noundef nonnull readonly align 8 captures(none) dereferenceable(552) %0, ptr noundef %1, i32 noundef %2) local_unnamed_addr #3 align 2 {
  %4 = getelementptr inbounds nuw i8, ptr %0, i64 8
  %5 = load ptr, ptr %4, align 8, !tbaa !12
  %6 = getelementptr inbounds nuw i8, ptr %5, i64 40
  %7 = load i8, ptr %6, align 8, !tbaa !352
  %8 = icmp eq i8 %7, 25
  tail call void @_ZN6duckdb18StringColumnReader12VerifyStringEPKcjb(ptr noundef %1, i32 noundef %2, i1 noundef zeroext %8)
  ret void
}